target datalayout = "e-m:e-p270:32:32-p271:32:32-p272:64:64-i64:64-i128:128-f80:128-n8:16:32:64-S128"
target triple = "x86_64-pc-linux-gnu"

@tres_cnt = internal global i32 0, align 4
@tres_names = internal global ptr null, align 8
@.str.13 = private unnamed_addr constant [1 x i8] zeroinitializer, align 1
@.str.74 = private unnamed_addr constant [4 x i8] c"%s=\00", align 1
@.str.75 = private unnamed_addr constant [6 x i8] c"%s%s=\00", align 1
@.str.76 = private unnamed_addr constant [2 x i8] c",\00", align 1
@.str.77 = private unnamed_addr constant [2 x i8] c"N\00", align 1
@.str.78 = private unnamed_addr constant [4 x i8] c"%lu\00", align 1
@.str.79 = private unnamed_addr constant [6 x i8] c"(%lu)\00", align 1

; Function Attrs: nounwind uwtable
define internal void @_print_tres_line(ptr noundef %0, ptr noundef %1, ptr noundef %2, i64 noundef %3) #0 {
  %5 = alloca ptr, align 8
  %6 = alloca ptr, align 8
  %7 = alloca ptr, align 8
  %8 = alloca i64, align 8
  %9 = alloca i32, align 4
  %10 = alloca i8, align 1
  %11 = alloca i32, align 4
  %12 = alloca i64, align 8
  store ptr %0, ptr %5, align 8
  store ptr %1, ptr %6, align 8
  store ptr %2, ptr %7, align 8
  store i64 %3, ptr %8, align 8
  call void @llvm.lifetime.start.p0(i64 4, ptr %9) #7
  call void @llvm.lifetime.start.p0(i64 1, ptr %10) #7
  store i8 0, ptr %10, align 1
  %13 = load ptr, ptr %5, align 8
  %14 = call i32 (ptr, ...) @printf(ptr noundef @.str.74, ptr noundef %13)
  %15 = load ptr, ptr %6, align 8
  %16 = icmp ne ptr %15, null
  br i1 %16, label %18, label %17

17:                                               ; preds = %4
  store i32 1, ptr %11, align 4
  br label %82

18:                                               ; preds = %4
  store i32 0, ptr %9, align 4
  br label %19

19:                                               ; preds = %78, %18
  %20 = load i32, ptr %9, align 4
  %21 = load i32, ptr @tres_cnt, align 4
  %22 = icmp ult i32 %20, %21
  br i1 %22, label %23, label %81

23:                                               ; preds = %19
  %24 = load ptr, ptr %7, align 8
  %25 = icmp ne ptr %24, null
  br i1 %25, label %34, label %26

26:                                               ; preds = %23
  %27 = load ptr, ptr %6, align 8
  %28 = load i32, ptr %9, align 4
  %29 = sext i32 %28 to i64
  %30 = getelementptr inbounds i64, ptr %27, i64 %29
  %31 = load i64, ptr %30, align 8
  %32 = icmp eq i64 %31, -1
  br i1 %32, label %33, label %34

33:                                               ; preds = %26
  br label %78

34:                                               ; preds = %26, %23
  %35 = load i8, ptr %10, align 1, !range !16, !noundef !17
  %36 = trunc i8 %35 to i1
  %37 = select i1 %36, ptr @.str.76, ptr @.str.13
  %38 = load ptr, ptr @tres_names, align 8
  %39 = load i32, ptr %9, align 4
  %40 = sext i32 %39 to i64
  %41 = getelementptr inbounds ptr, ptr %38, i64 %40
  %42 = load ptr, ptr %41, align 8
  %43 = call i32 (ptr, ...) @printf(ptr noundef @.str.75, ptr noundef %37, ptr noundef %42)
  %44 = load ptr, ptr %6, align 8
  %45 = load i32, ptr %9, align 4
  %46 = sext i32 %45 to i64
  %47 = getelementptr inbounds i64, ptr %44, i64 %46
  %48 = load i64, ptr %47, align 8
  %49 = icmp eq i64 %48, -1
  br i1 %49, label %50, label %52

50:                                               ; preds = %34
  %51 = call i32 (ptr, ...) @printf(ptr noundef @.str.77)
  br label %59

52:                                               ; preds = %34
  %53 = load ptr, ptr %6, align 8
  %54 = load i32, ptr %9, align 4
  %55 = sext i32 %54 to i64
  %56 = getelementptr inbounds i64, ptr %53, i64 %55
  %57 = load i64, ptr %56, align 8
  %58 = call i32 (ptr, ...) @printf(ptr noundef @.str.78, i64 noundef %57)
  br label %59

59:                                               ; preds = %52, %50
  %60 = load ptr, ptr %7, align 8
  %61 = icmp ne ptr %60, null
  br i1 %61, label %62, label %77

62:                                               ; preds = %59
  call void @llvm.lifetime.start.p0(i64 8, ptr %12) #7
  %63 = load ptr, ptr %7, align 8
  %64 = load i32, ptr %9, align 4
  %65 = sext i32 %64 to i64
  %66 = getelementptr inbounds i64, ptr %63, i64 %65
  %67 = load i64, ptr %66, align 8
  store i64 %67, ptr %12, align 8
  %68 = load i64, ptr %8, align 8
  %69 = icmp ne i64 %68, 0
  br i1 %69, label %70, label %74

70:                                               ; preds = %62
  %71 = load i64, ptr %8, align 8
  %72 = load i64, ptr %12, align 8
  %73 = udiv i64 %72, %71
  store i64 %73, ptr %12, align 8
  br label %74

74:                                               ; preds = %70, %62
  %75 = load i64, ptr %12, align 8
  %76 = call i32 (ptr, ...) @printf(ptr noundef @.str.79, i64 noundef %75)
  call void @llvm.lifetime.end.p0(i64 8, ptr %12) #7
  br label %77

77:                                               ; preds = %74, %59
  store i8 1, ptr %10, align 1
  br label %78

78:                                               ; preds = %77, %33
  %79 = load i32, ptr %9, align 4
  %80 = add nsw i32 %79, 1
  store i32 %80, ptr %9, align 4
  br label %19, !llvm.loop !18

81:                                               ; preds = %19
  store i32 0, ptr %11, align 4
  br label %82

82:                                               ; preds = %81, %17
  call void @llvm.lifetime.end.p0(i64 1, ptr %10) #7
  call void @llvm.lifetime.end.p0(i64 4, ptr %9) #7
  %83 = load i32, ptr %11, align 4
  switch i32 %83, label %85 [
    i32 0, label %84
    i32 1, label %84
  ]

84:                                               ; preds = %82, %82
  ret void

85:                                               ; preds = %82
  unreachable
}