; Function Attrs: nofree nounwind uwtable
define internal fastcc void @_print_tres_line(ptr noundef %0, ptr noundef readonly captures(address_is_null) %1, ptr noundef readonly captures(address_is_null) %2, i64 noundef range(i64 0, 61) %3) unnamed_addr #6 {
  %5 = tail call i32 (ptr, ...) @printf(ptr noundef nonnull dereferenceable(1) @.str.74, ptr noundef %0)
  %.not = icmp ne ptr %1, null
  %6 = load i32, ptr @tres_cnt, align 4
  %7 = icmp ne i32 %6, 0
  %or.cond = select i1 %.not, i1 %7, i1 false
  br i1 %or.cond, label %.lr.ph, label %.loopexit

.lr.ph:                                           ; preds = %4
  %.not25 = icmp eq ptr %2, null
  br i1 %.not25, label %.lr.ph.split.us, label %.lr.ph.split

.lr.ph.split.us:                                  ; preds = %.lr.ph, %22
  %indvars.iv39 = phi i64 [ %indvars.iv.next40, %22 ], [ 0, %.lr.ph ]
  %.01928.us = phi i1 [ %.1.us, %22 ], [ false, %.lr.ph ]
  %8 = getelementptr inbounds nuw i64, ptr %1, i64 %indvars.iv39
  %9 = load i64, ptr %8, align 8
  %10 = icmp eq i64 %9, -1
  br i1 %10, label %22, label %11

11:                                               ; preds = %.lr.ph.split.us
  %12 = select i1 %.01928.us, ptr @.str.76, ptr @.str.13
  %13 = load ptr, ptr @tres_names, align 8
  %14 = getelementptr inbounds nuw ptr, ptr %13, i64 %indvars.iv39
  %15 = load ptr, ptr %14, align 8
  %16 = tail call i32 (ptr, ...) @printf(ptr noundef nonnull dereferenceable(1) @.str.75, ptr noundef nonnull %12, ptr noundef %15)
  %17 = load i64, ptr %8, align 8
  %18 = icmp eq i64 %17, -1
  br i1 %18, label %21, label %19

19:                                               ; preds = %11
  %20 = tail call i32 (ptr, ...) @printf(ptr noundef nonnull dereferenceable(1) @.str.78, i64 noundef %17)
  br label %22

21:                                               ; preds = %11
  %putchar.us = tail call i32 @putchar(i32 78)
  br label %22

22:                                               ; preds = %19, %21, %.lr.ph.split.us
  %.1.us = phi i1 [ %.01928.us, %.lr.ph.split.us ], [ true, %21 ], [ true, %19 ]
  %indvars.iv.next40 = add nuw nsw i64 %indvars.iv39, 1
  %23 = load i32, ptr @tres_cnt, align 4
  %24 = zext i32 %23 to i64
  %25 = icmp samesign ult i64 %indvars.iv.next40, %24
  br i1 %25, label %.lr.ph.split.us, label %.loopexit, !llvm.loop !13

.lr.ph.split:                                     ; preds = %.lr.ph
  %.not26 = icmp eq i64 %3, 0
  br i1 %.not26, label %.lr.ph.split.split.us, label %.lr.ph.split.split

.lr.ph.split.split.us:                            ; preds = %.lr.ph.split, %36
  %indvars.iv36 = phi i64 [ %indvars.iv.next37, %36 ], [ 0, %.lr.ph.split ]
  %.01928.us29 = phi ptr [ @.str.76, %36 ], [ @.str.13, %.lr.ph.split ]
  %26 = load ptr, ptr @tres_names, align 8
  %27 = getelementptr inbounds nuw ptr, ptr %26, i64 %indvars.iv36
  %28 = load ptr, ptr %27, align 8
  %29 = tail call i32 (ptr, ...) @printf(ptr noundef nonnull dereferenceable(1) @.str.75, ptr noundef nonnull %.01928.us29, ptr noundef %28)
  %30 = getelementptr inbounds nuw i64, ptr %1, i64 %indvars.iv36
  %31 = load i64, ptr %30, align 8
  %32 = icmp eq i64 %31, -1
  br i1 %32, label %35, label %33

33:                                               ; preds = %.lr.ph.split.split.us
  %34 = tail call i32 (ptr, ...) @printf(ptr noundef nonnull dereferenceable(1) @.str.78, i64 noundef %31)
  br label %36

35:                                               ; preds = %.lr.ph.split.split.us
  %putchar.us31 = tail call i32 @putchar(i32 78)
  br label %36

36:                                               ; preds = %35, %33
  %37 = getelementptr inbounds nuw i64, ptr %2, i64 %indvars.iv36
  %38 = load i64, ptr %37, align 8
  %39 = tail call i32 (ptr, ...) @printf(ptr noundef nonnull dereferenceable(1) @.str.79, i64 noundef %38)
  %indvars.iv.next37 = add nuw nsw i64 %indvars.iv36, 1
  %40 = load i32, ptr @tres_cnt, align 4
  %41 = zext i32 %40 to i64
  %42 = icmp samesign ult i64 %indvars.iv.next37, %41
  br i1 %42, label %.lr.ph.split.split.us, label %.loopexit, !llvm.loop !13

.lr.ph.split.split:                               ; preds = %.lr.ph.split, %53
  %indvars.iv = phi i64 [ %indvars.iv.next, %53 ], [ 0, %.lr.ph.split ]
  %.01928 = phi ptr [ @.str.76, %53 ], [ @.str.13, %.lr.ph.split ]
  %43 = load ptr, ptr @tres_names, align 8
  %44 = getelementptr inbounds nuw ptr, ptr %43, i64 %indvars.iv
  %45 = load ptr, ptr %44, align 8
  %46 = tail call i32 (ptr, ...) @printf(ptr noundef nonnull dereferenceable(1) @.str.75, ptr noundef nonnull %.01928, ptr noundef %45)
  %47 = getelementptr inbounds nuw i64, ptr %1, i64 %indvars.iv
  %48 = load i64, ptr %47, align 8
  %49 = icmp eq i64 %48, -1
  br i1 %49, label %50, label %51

50:                                               ; preds = %.lr.ph.split.split
  %putchar = tail call i32 @putchar(i32 78)
  br label %53

51:                                               ; preds = %.lr.ph.split.split
  %52 = tail call i32 (ptr, ...) @printf(ptr noundef nonnull dereferenceable(1) @.str.78, i64 noundef %48)
  br label %53

53:                                               ; preds = %51, %50
  %54 = getelementptr inbounds nuw i64, ptr %2, i64 %indvars.iv
  %55 = load i64, ptr %54, align 8
  %56 = udiv i64 %55, %3
  %57 = tail call i32 (ptr, ...) @printf(ptr noundef nonnull dereferenceable(1) @.str.79, i64 noundef %56)
  %indvars.iv.next = add nuw nsw i64 %indvars.iv, 1
  %58 = load i32, ptr @tres_cnt, align 4
  %59 = zext i32 %58 to i64
  %60 = icmp samesign ult i64 %indvars.iv.next, %59
  br i1 %60, label %.lr.ph.split.split, label %.loopexit, !llvm.loop !13

.loopexit:                                        ; preds = %53, %36, %22, %4
  ret void
}